target datalayout = "e-m:e-p270:32:32-p271:32:32-p272:64:64-i64:64-i128:128-f80:128-n8:16:32:64-S128"
target triple = "x86_64-pc-linux-gnu"

%"class.gmx::SelectionTreeElement" = type { i32, %struct.gmx_ana_selvalue_t, ptr, i32, %union.anon.0, ptr, ptr, %"class.std::shared_ptr", %"class.std::shared_ptr", %"class.std::__cxx11::basic_string", %"struct.gmx::SelectionLocation" }
%struct.gmx_ana_selvalue_t = type { i32, i32, %union.anon, i32 }
%union.anon = type { ptr }
%union.anon.0 = type { %struct.anon }
%struct.anon = type { ptr, ptr, ptr, ptr }
%"class.std::shared_ptr" = type { %"class.std::__shared_ptr" }
%"class.std::__shared_ptr" = type { ptr, %"class.std::__shared_count" }
%"class.std::__shared_count" = type { ptr }
%"class.std::__cxx11::basic_string" = type { %"struct.std::__cxx11::basic_string<char>::_Alloc_hider", i64, %union.anon.2 }
%"struct.std::__cxx11::basic_string<char>::_Alloc_hider" = type { ptr }
%union.anon.2 = type { i64, [8 x i8] }
%"struct.gmx::SelectionLocation" = type { i32, i32 }
%class.anon = type { i8 }
%struct.gmx_ana_index_t = type { i32, ptr, i32 }
%struct.gmx_ana_selparam_t = type { ptr, %struct.gmx_ana_selvalue_t, ptr, i32 }

@.str.19 = private unnamed_addr constant [9 x i8] c"v.u.s[i]\00", align 1
@.str.20 = private unnamed_addr constant [127 x i8] c"generated/home/dtcxzyw/WorkSpace/Projects/compilers/llvm-opt-benchmark/bench/gromacs/gromacs/src/gromacs/selection/selelem.cpp\00", align 1
@.str.21 = private unnamed_addr constant [14 x i8] c"v.nalloc != 0\00", align 1
@.str.22 = private unnamed_addr constant [64 x i8] c"SEL_ALLOCDATA should only be set for allocated STR_VALUE values\00", align 1
@"__PRETTY_FUNCTION__._ZZN3gmx20SelectionTreeElement10freeValuesEvENK3$_0clEv" = private unnamed_addr constant [84 x i8] c"auto gmx::SelectionTreeElement::freeValues()::(anonymous class)::operator()() const\00", align 1

; Function Attrs: mustprogress uwtable
define void @_Z23_gmx_selelem_free_paramP18gmx_ana_selparam_t(ptr noundef %0) #1 {
  %2 = alloca ptr, align 8
  %3 = alloca i32, align 4
  store ptr %0, ptr %2, align 8
  %4 = load ptr, ptr %2, align 8
  %5 = getelementptr inbounds %struct.gmx_ana_selparam_t, ptr %4, i32 0, i32 1
  %6 = getelementptr inbounds %struct.gmx_ana_selvalue_t, ptr %5, i32 0, i32 2
  %7 = load ptr, ptr %6, align 8
  %8 = icmp ne ptr %7, null
  br i1 %8, label %9, label %38

9:                                                ; preds = %1
  %10 = load ptr, ptr %2, align 8
  %11 = getelementptr inbounds %struct.gmx_ana_selparam_t, ptr %10, i32 0, i32 1
  %12 = getelementptr inbounds %struct.gmx_ana_selvalue_t, ptr %11, i32 0, i32 0
  %13 = load i32, ptr %12, align 8
  %14 = icmp eq i32 %13, 5
  br i1 %14, label %15, label %35

15:                                               ; preds = %9
  store i32 0, ptr %3, align 4
  br label %16

16:                                               ; preds = %31, %15
  %17 = load i32, ptr %3, align 4
  %18 = load ptr, ptr %2, align 8
  %19 = getelementptr inbounds %struct.gmx_ana_selparam_t, ptr %18, i32 0, i32 1
  %20 = getelementptr inbounds %struct.gmx_ana_selvalue_t, ptr %19, i32 0, i32 1
  %21 = load i32, ptr %20, align 4
  %22 = icmp slt i32 %17, %21
  br i1 %22, label %23, label %34

23:                                               ; preds = %16
  %24 = load ptr, ptr %2, align 8
  %25 = getelementptr inbounds %struct.gmx_ana_selparam_t, ptr %24, i32 0, i32 1
  %26 = getelementptr inbounds %struct.gmx_ana_selvalue_t, ptr %25, i32 0, i32 2
  %27 = load ptr, ptr %26, align 8
  %28 = load i32, ptr %3, align 4
  %29 = sext i32 %28 to i64
  %30 = getelementptr inbounds %struct.gmx_ana_index_t, ptr %27, i64 %29
  call void @_Z20gmx_ana_index_deinitP15gmx_ana_index_t(ptr noundef %30)
  br label %31

31:                                               ; preds = %23
  %32 = load i32, ptr %3, align 4
  %33 = add nsw i32 %32, 1
  store i32 %33, ptr %3, align 4
  br label %16, !llvm.loop !8

34:                                               ; preds = %16
  br label %35

35:                                               ; preds = %34, %9
  %36 = load ptr, ptr %2, align 8
  %37 = getelementptr inbounds %struct.gmx_ana_selparam_t, ptr %36, i32 0, i32 1
  call void @_Z18_gmx_selvalue_freeP18gmx_ana_selvalue_t(ptr noundef %37)
  br label %38

38:                                               ; preds = %35, %1
  ret void
}

; Function Attrs: mustprogress uwtable
define internal void @_ZL14gmx_sfree_implIcEvPKcS1_iPT_(ptr noundef %0, ptr noundef %1, i32 noundef %2, ptr noundef %3) #1 {
  %5 = alloca ptr, align 8
  %6 = alloca ptr, align 8
  %7 = alloca i32, align 4
  %8 = alloca ptr, align 8
  store ptr %0, ptr %5, align 8
  store ptr %1, ptr %6, align 8
  store i32 %2, ptr %7, align 4
  store ptr %3, ptr %8, align 8
  %9 = load ptr, ptr %5, align 8
  %10 = load ptr, ptr %6, align 8
  %11 = load i32, ptr %7, align 4
  %12 = load ptr, ptr %8, align 8
  call void @_Z9save_freePKcS0_iPv(ptr noundef %9, ptr noundef %10, i32 noundef %11, ptr noundef %12)
  ret void
}

; Function Attrs: mustprogress uwtable
define internal void @"_ZZN3gmx20SelectionTreeElement10freeValuesEvENK3$_0clEv"(ptr noundef nonnull align 1 dereferenceable(1) %0) #1 align 2 {
  %2 = alloca ptr, align 8
  store ptr %0, ptr %2, align 8
  call void @_ZN3gmx8internal13assertHandlerEPKcS2_S2_S2_i(ptr noundef @.str.21, ptr noundef @.str.22, ptr noundef @"__PRETTY_FUNCTION__._ZZN3gmx20SelectionTreeElement10freeValuesEvENK3$_0clEv", ptr noundef @.str.20, i32 noundef 187) #14
  unreachable
}

; Function Attrs: mustprogress uwtable
define void @_ZN3gmx20SelectionTreeElement10freeValuesEv(ptr noundef nonnull align 8 dereferenceable(168) %0) #1 align 2 {
  %2 = alloca ptr, align 8
  %3 = alloca i32, align 4
  %4 = alloca %class.anon, align 1
  %5 = alloca i32, align 4
  %6 = alloca i32, align 4
  store ptr %0, ptr %2, align 8
  %7 = load ptr, ptr %2, align 8
  call void @_ZN3gmx20SelectionTreeElement14mempoolReleaseEv(ptr noundef nonnull align 8 dereferenceable(168) %7)
  %8 = getelementptr inbounds %"class.gmx::SelectionTreeElement", ptr %7, i32 0, i32 3
  %9 = load i32, ptr %8, align 8
  %10 = and i32 %9, 512
  %11 = icmp ne i32 %10, 0
  br i1 %11, label %12, label %77

12:                                               ; preds = %1
  %13 = getelementptr inbounds %"class.gmx::SelectionTreeElement", ptr %7, i32 0, i32 1
  %14 = getelementptr inbounds %struct.gmx_ana_selvalue_t, ptr %13, i32 0, i32 2
  %15 = load ptr, ptr %14, align 8
  %16 = icmp ne ptr %15, null
  br i1 %16, label %17, label %77

17:                                               ; preds = %12
  %18 = getelementptr inbounds %"class.gmx::SelectionTreeElement", ptr %7, i32 0, i32 1
  %19 = getelementptr inbounds %struct.gmx_ana_selvalue_t, ptr %18, i32 0, i32 3
  %20 = load i32, ptr %19, align 8
  %21 = icmp sgt i32 %20, 0
  br i1 %21, label %22, label %26

22:                                               ; preds = %17
  %23 = getelementptr inbounds %"class.gmx::SelectionTreeElement", ptr %7, i32 0, i32 1
  %24 = getelementptr inbounds %struct.gmx_ana_selvalue_t, ptr %23, i32 0, i32 3
  %25 = load i32, ptr %24, align 8
  br label %30

26:                                               ; preds = %17
  %27 = getelementptr inbounds %"class.gmx::SelectionTreeElement", ptr %7, i32 0, i32 1
  %28 = getelementptr inbounds %struct.gmx_ana_selvalue_t, ptr %27, i32 0, i32 1
  %29 = load i32, ptr %28, align 4
  br label %30

30:                                               ; preds = %26, %22
  %31 = phi i32 [ %25, %22 ], [ %29, %26 ]
  store i32 %31, ptr %3, align 4
  %32 = getelementptr inbounds %"class.gmx::SelectionTreeElement", ptr %7, i32 0, i32 1
  %33 = getelementptr inbounds %struct.gmx_ana_selvalue_t, ptr %32, i32 0, i32 0
  %34 = load i32, ptr %33, align 8
  switch i32 %34, label %75 [
    i32 3, label %35
    i32 5, label %59
  ]

35:                                               ; preds = %30
  %36 = getelementptr inbounds %"class.gmx::SelectionTreeElement", ptr %7, i32 0, i32 1
  %37 = getelementptr inbounds %struct.gmx_ana_selvalue_t, ptr %36, i32 0, i32 3
  %38 = load i32, ptr %37, align 8
  %39 = icmp ne i32 %38, 0
  br i1 %39, label %40, label %41

40:                                               ; preds = %35
  br label %42

41:                                               ; preds = %35
  call void @"_ZZN3gmx20SelectionTreeElement10freeValuesEvENK3$_0clEv"(ptr noundef nonnull align 1 dereferenceable(1) %4)
  br label %42

42:                                               ; preds = %41, %40
  store i32 0, ptr %5, align 4
  br label %43

43:                                               ; preds = %55, %42
  %44 = load i32, ptr %5, align 4
  %45 = load i32, ptr %3, align 4
  %46 = icmp slt i32 %44, %45
  br i1 %46, label %47, label %58

47:                                               ; preds = %43
  %48 = getelementptr inbounds %"class.gmx::SelectionTreeElement", ptr %7, i32 0, i32 1
  %49 = getelementptr inbounds %struct.gmx_ana_selvalue_t, ptr %48, i32 0, i32 2
  %50 = load ptr, ptr %49, align 8
  %51 = load i32, ptr %5, align 4
  %52 = sext i32 %51 to i64
  %53 = getelementptr inbounds ptr, ptr %50, i64 %52
  %54 = load ptr, ptr %53, align 8
  call void @_ZL14gmx_sfree_implIcEvPKcS1_iPT_(ptr noundef @.str.19, ptr noundef @.str.20, i32 noundef 190, ptr noundef %54)
  br label %55

55:                                               ; preds = %47
  %56 = load i32, ptr %5, align 4
  %57 = add nsw i32 %56, 1
  store i32 %57, ptr %5, align 4
  br label %43, !llvm.loop !5

58:                                               ; preds = %43
  br label %76

59:                                               ; preds = %30
  store i32 0, ptr %6, align 4
  br label %60

60:                                               ; preds = %71, %59
  %61 = load i32, ptr %6, align 4
  %62 = load i32, ptr %3, align 4
  %63 = icmp slt i32 %61, %62
  br i1 %63, label %64, label %74

64:                                               ; preds = %60
  %65 = getelementptr inbounds %"class.gmx::SelectionTreeElement", ptr %7, i32 0, i32 1
  %66 = getelementptr inbounds %struct.gmx_ana_selvalue_t, ptr %65, i32 0, i32 2
  %67 = load ptr, ptr %66, align 8
  %68 = load i32, ptr %6, align 4
  %69 = sext i32 %68 to i64
  %70 = getelementptr inbounds %struct.gmx_ana_index_t, ptr %67, i64 %69
  call void @_Z20gmx_ana_index_deinitP15gmx_ana_index_t(ptr noundef %70)
  br label %71

71:                                               ; preds = %64
  %72 = load i32, ptr %6, align 4
  %73 = add nsw i32 %72, 1
  store i32 %73, ptr %6, align 4
  br label %60, !llvm.loop !7

74:                                               ; preds = %60
  br label %76

75:                                               ; preds = %30
  br label %76

76:                                               ; preds = %75, %74, %58
  br label %77

77:                                               ; preds = %76, %12, %1
  %78 = getelementptr inbounds %"class.gmx::SelectionTreeElement", ptr %7, i32 0, i32 1
  call void @_Z18_gmx_selvalue_freeP18gmx_ana_selvalue_t(ptr noundef %78)
  %79 = getelementptr inbounds %"class.gmx::SelectionTreeElement", ptr %7, i32 0, i32 0
  %80 = load i32, ptr %79, align 8
  %81 = icmp eq i32 %80, 6
  br i1 %81, label %82, label %89

82:                                               ; preds = %77
  %83 = getelementptr inbounds %"class.gmx::SelectionTreeElement", ptr %7, i32 0, i32 4
  %84 = load ptr, ptr %83, align 8
  %85 = icmp ne ptr %84, null
  br i1 %85, label %86, label %89

86:                                               ; preds = %82
  %87 = getelementptr inbounds %"class.gmx::SelectionTreeElement", ptr %7, i32 0, i32 4
  %88 = load ptr, ptr %87, align 8
  call void @_Z23_gmx_selelem_free_paramP18gmx_ana_selparam_t(ptr noundef %88)
  br label %89

89:                                               ; preds = %86, %82, %77
  ret void
}