; Function Attrs: mustprogress uwtable
define void @_ZN3gmx20SelectionTreeElement10freeValuesEv(ptr noundef nonnull align 8 dereferenceable(168) %0) local_unnamed_addr #1 align 2 {
  tail call void @_ZN3gmx20SelectionTreeElement14mempoolReleaseEv(ptr noundef nonnull align 8 dereferenceable(168) %0)
  %2 = getelementptr inbounds i8, ptr %0, i64 40
  %3 = load i32, ptr %2, align 8
  %4 = and i32 %3, 512
  %.not = icmp eq i32 %4, 0
  br i1 %.not, label %.loopexit, label %5

5:                                                ; preds = %1
  %6 = getelementptr inbounds i8, ptr %0, i64 16
  %7 = load ptr, ptr %6, align 8
  %.not11 = icmp eq ptr %7, null
  br i1 %.not11, label %.loopexit, label %8

8:                                                ; preds = %5
  %9 = getelementptr inbounds i8, ptr %0, i64 8
  %10 = getelementptr inbounds i8, ptr %0, i64 24
  %11 = load i32, ptr %10, align 8
  %12 = icmp sgt i32 %11, 0
  %13 = getelementptr inbounds i8, ptr %0, i64 12
  %14 = load i32, ptr %13, align 4
  %15 = select i1 %12, i32 %11, i32 %14
  %16 = load i32, ptr %9, align 8
  switch i32 %16, label %.loopexit [
    i32 3, label %18
    i32 5, label %.preheader14
  ]

.preheader14:                                     ; preds = %8
  %17 = icmp sgt i32 %15, 0
  br i1 %17, label %.lr.ph.preheader, label %.loopexit

.lr.ph.preheader:                                 ; preds = %.preheader14
  %wide.trip.count = zext nneg i32 %15 to i64
  br label %.lr.ph

18:                                               ; preds = %8
  %.not12 = icmp eq i32 %11, 0
  br i1 %.not12, label %20, label %.preheader

.preheader:                                       ; preds = %18
  %19 = icmp sgt i32 %15, 0
  br i1 %19, label %.lr.ph18.preheader, label %.loopexit

.lr.ph18.preheader:                               ; preds = %.preheader
  %wide.trip.count24 = zext nneg i32 %15 to i64
  br label %.lr.ph18

20:                                               ; preds = %18
  tail call void @_ZN3gmx8internal13assertHandlerEPKcS2_S2_S2_i(ptr noundef nonnull @.str.21, ptr noundef nonnull @.str.22, ptr noundef nonnull @"__PRETTY_FUNCTION__._ZZN3gmx20SelectionTreeElement10freeValuesEvENK3$_0clEv", ptr noundef nonnull @.str.20, i32 noundef 187) #19
  unreachable

.lr.ph18:                                         ; preds = %.lr.ph18.preheader, %.lr.ph18
  %indvars.iv21 = phi i64 [ 0, %.lr.ph18.preheader ], [ %indvars.iv.next22, %.lr.ph18 ]
  %21 = load ptr, ptr %6, align 8
  %22 = getelementptr inbounds ptr, ptr %21, i64 %indvars.iv21
  %23 = load ptr, ptr %22, align 8
  tail call void @_Z9save_freePKcS0_iPv(ptr noundef nonnull @.str.19, ptr noundef nonnull @.str.20, i32 noundef 190, ptr noundef %23)
  %indvars.iv.next22 = add nuw nsw i64 %indvars.iv21, 1
  %exitcond25.not = icmp eq i64 %indvars.iv.next22, %wide.trip.count24
  br i1 %exitcond25.not, label %.loopexit, label %.lr.ph18, !llvm.loop !5

.lr.ph:                                           ; preds = %.lr.ph.preheader, %.lr.ph
  %indvars.iv = phi i64 [ 0, %.lr.ph.preheader ], [ %indvars.iv.next, %.lr.ph ]
  %24 = load ptr, ptr %6, align 8
  %25 = getelementptr inbounds %struct.gmx_ana_index_t, ptr %24, i64 %indvars.iv
  tail call void @_Z20gmx_ana_index_deinitP15gmx_ana_index_t(ptr noundef %25)
  %indvars.iv.next = add nuw nsw i64 %indvars.iv, 1
  %exitcond.not = icmp eq i64 %indvars.iv.next, %wide.trip.count
  br i1 %exitcond.not, label %.loopexit, label %.lr.ph, !llvm.loop !7

.loopexit:                                        ; preds = %.lr.ph, %.lr.ph18, %.preheader14, %.preheader, %8, %5, %1
  %26 = getelementptr inbounds i8, ptr %0, i64 8
  tail call void @_Z18_gmx_selvalue_freeP18gmx_ana_selvalue_t(ptr noundef nonnull %26)
  %27 = load i32, ptr %0, align 8
  %28 = icmp eq i32 %27, 6
  br i1 %28, label %29, label %_Z23_gmx_selelem_free_paramP18gmx_ana_selparam_t.exit

29:                                               ; preds = %.loopexit
  %30 = getelementptr inbounds i8, ptr %0, i64 48
  %31 = load ptr, ptr %30, align 8
  %.not13 = icmp eq ptr %31, null
  br i1 %.not13, label %_Z23_gmx_selelem_free_paramP18gmx_ana_selparam_t.exit, label %32

32:                                               ; preds = %29
  %33 = getelementptr inbounds i8, ptr %31, i64 8
  %34 = getelementptr inbounds i8, ptr %31, i64 16
  %35 = load ptr, ptr %34, align 8
  %.not.i = icmp eq ptr %35, null
  br i1 %.not.i, label %_Z23_gmx_selelem_free_paramP18gmx_ana_selparam_t.exit, label %36

36:                                               ; preds = %32
  %37 = load i32, ptr %33, align 8
  %38 = icmp eq i32 %37, 5
  br i1 %38, label %.preheader.i, label %.loopexit.i

.preheader.i:                                     ; preds = %36
  %39 = getelementptr inbounds i8, ptr %31, i64 12
  %40 = load i32, ptr %39, align 4
  %41 = icmp sgt i32 %40, 0
  br i1 %41, label %.lr.ph.i, label %.loopexit.i

.lr.ph.i:                                         ; preds = %.preheader.i, %.lr.ph.i
  %indvars.iv.i = phi i64 [ %indvars.iv.next.i, %.lr.ph.i ], [ 0, %.preheader.i ]
  %42 = load ptr, ptr %34, align 8
  %43 = getelementptr inbounds %struct.gmx_ana_index_t, ptr %42, i64 %indvars.iv.i
  tail call void @_Z20gmx_ana_index_deinitP15gmx_ana_index_t(ptr noundef %43)
  %indvars.iv.next.i = add nuw nsw i64 %indvars.iv.i, 1
  %44 = load i32, ptr %39, align 4
  %45 = sext i32 %44 to i64
  %46 = icmp slt i64 %indvars.iv.next.i, %45
  br i1 %46, label %.lr.ph.i, label %.loopexit.i, !llvm.loop !8

.loopexit.i:                                      ; preds = %.lr.ph.i, %.preheader.i, %36
  tail call void @_Z18_gmx_selvalue_freeP18gmx_ana_selvalue_t(ptr noundef nonnull %33)
  br label %_Z23_gmx_selelem_free_paramP18gmx_ana_selparam_t.exit

_Z23_gmx_selelem_free_paramP18gmx_ana_selparam_t.exit: ; preds = %.loopexit.i, %32, %29, %.loopexit
  ret void
}